; Function Attrs: mustprogress uwtable
define noundef zeroext i1 @_ZNK14RtpAudioStream7isMatchEPK12_packet_infoPK9_rtp_info(ptr noundef nonnull align 8 dereferenceable(7680) %0, ptr noundef %1, ptr noundef %2) local_unnamed_addr #0 align 2 {
  %4 = icmp ne ptr %1, null
  %5 = icmp ne ptr %2, null
  %or.cond = and i1 %4, %5
  br i1 %or.cond, label %6, label %9

6:                                                ; preds = %3
  %7 = getelementptr inbounds i8, ptr %0, i64 16
  %8 = tail call i32 @rtpstream_id_equal_pinfo_rtp_info(ptr noundef nonnull %7, ptr noundef nonnull %1, ptr noundef nonnull %2)
  %.not = icmp eq i32 %8, 0
  br i1 %.not, label %9, label %10

9:                                                ; preds = %6, %3
  br label %10

10:                                               ; preds = %6, %9
  %.0 = phi i1 [ false, %9 ], [ true, %6 ]
  ret i1 %.0
}